; Function Attrs: mustprogress nofree nounwind uwtable
define void @fstWriterEmitEnumTableRef(ptr noundef captures(address_is_null) %0, i32 noundef %1) local_unnamed_addr #14 {
  %3 = icmp ne ptr %0, null
  %4 = icmp ne i32 %1, 0
  %or.cond = and i1 %3, %4
  br i1 %or.cond, label %5, label %7

5:                                                ; preds = %2
  %6 = zext i32 %1 to i64
  tail call void @fstWriterSetAttrBegin(ptr noundef nonnull %0, i32 noundef 0, i32 noundef 7, ptr noundef null, i64 noundef %6)
  br label %7

7:                                                ; preds = %5, %2
  ret void
}